arm-linux-gnueabihf-nm -slpaC arm --print-size mixer | less

```
00458b3c 0000e2d8 D xmenpanel_code
0046dca8 000014ff D fwupdateScript_code
```



```
  1510: 00000000     0 FILE    LOCAL  DEFAULT  ABS mixerclientcomponent.cpp
  1813: 001622f8  4452 OBJECT  LOCAL  DEFAULT   14 _ZN8Presonus4XMenL15GlobalParamListE
  1814: 0016345c  2268 OBJECT  LOCAL  DEFAULT   14 _ZN8Presonus4XMenL19MuteGroupsParamListE
  1815: 00163d38  1512 OBJECT  LOCAL  DEFAULT   14 _ZN8Presonus4XMenL18MixScenesParamListE
  1816: 00164320   336 OBJECT  LOCAL  DEFAULT   14 _ZN8Presonus4XMenL15PresetParamListE
  1817: 00164470  3360 OBJECT  LOCAL  DEFAULT   14 _ZN8Presonus4XMenL22MastersectionParamListE
  1818: 00165190  2100 OBJECT  LOCAL  DEFAULT   14 _ZN8Presonus4XMenL16NetworkParamListE
  1819: 001659c4   420 OBJECT  LOCAL  DEFAULT   14 _ZN8Presonus4XMenL20PermissionsParamListE
  1820: 00165b68   672 OBJECT  LOCAL  DEFAULT   14 _ZN8Presonus4XMenL12AvbParamListE
  1821: 00165e08  1428 OBJECT  LOCAL  DEFAULT   14 _ZN8Presonus4XMenL17FXReverbParamListE
  1822: 0016639c  1512 OBJECT  LOCAL  DEFAULT   14 _ZN8Presonus4XMenL16FXDelayParamListE
  1823: 00168418  1680 OBJECT  LOCAL  DEFAULT   14 _ZN8Presonus4XMenL21MicLineInputParamListE
  1824: 00167260  4536 OBJECT  LOCAL  DEFAULT   14 _ZN8Presonus4XMenL21InputChannelParamListE
  1825: 00168afc   840 OBJECT  LOCAL  DEFAULT   14 _ZN8Presonus4XMenL13GateParamListE
  1826: 00169abc    84 OBJECT  LOCAL  DEFAULT   14 _ZN8Presonus4XMenL27StereoDigitalInputParamListE
  1827: 00169b10   168 OBJECT  LOCAL  DEFAULT   14 _ZN8Presonus4XMenL22TalkbackInputParamListE
  1828: 00169bb8   420 OBJECT  LOCAL  DEFAULT   14 _ZN8Presonus4XMenL24FirmwareUpgradeParamListE
  1829: 00169d5c    84 OBJECT  LOCAL  DEFAULT   14 _ZN8Presonus4XMenL22OutputChannelParamListE
  1830: 00169db0   336 OBJECT  LOCAL  DEFAULT   14 _ZN8Presonus4XMenL26SendOutputChannelParamListE
  1831: 00168aa8    84 OBJECT  LOCAL  DEFAULT   14 _ZN8Presonus4XMenL15HiPassParamListE
  1832: 00169f00    84 OBJECT  LOCAL  DEFAULT   14 _ZN8Presonus4XMenL15LoPassParamListE
  1833: 00166984  2268 OBJECT  LOCAL  DEFAULT   14 _ZN8Presonus4XMenL16ChannelParamListE
  1834: 00168e44   840 OBJECT  LOCAL  DEFAULT   14 _ZN8Presonus4XMenL19CompressorParamListE
  1835: 0016918c  2100 OBJECT  LOCAL  DEFAULT   14 _ZN8Presonus4XMenL11EqParamListE
  1836: 001699c0   252 OBJECT  LOCAL  DEFAULT   14 _ZN8Presonus4XMenL16LimiterParamListE
  1837: 0016aa28   168 OBJECT  LOCAL  DEFAULT   14 _ZN8Presonus4XMenL14GEQUIParamListE
  1838: 00169f54  2772 OBJECT  LOCAL  DEFAULT   14 _ZN8Presonus4XMenL12GEQParamListE
  1839: 0016aad0  7224 OBJECT  LOCAL  DEFAULT   14 _ZN8Presonus4XMenL20FilterGroupParamListE
    1873: 00454430     8 OBJECT  LOCAL  DEFAULT   23 _ZN8Presonus4XMenL11ChainIdListE
  1874: 00454438    12 OBJECT  LOCAL  DEFAULT   23 _ZN8Presonus4XMenL13LinkStateListE
  1875: 00454444     8 OBJECT  LOCAL  DEFAULT   23 _ZN8Presonus4XMenL15DriverStateListE
  1876: 0045444c     8 OBJECT  LOCAL  DEFAULT   23 _ZN8Presonus4XMenL6yes_noE
  1877: 00454454    12 OBJECT  LOCAL  DEFAULT   23 _ZN8Presonus4XMenL12HpfSlopeListE
  1878: 00454460     8 OBJECT  LOCAL  DEFAULT   23 _ZN8Presonus4XMenL6on_offE
  1879: 00454468    16 OBJECT  LOCAL  DEFAULT   23 _ZN8Presonus4XMenL14SampleRateListE
  1880: 00454478     8 OBJECT  LOCAL  DEFAULT   23 _ZN8Presonus4XMenL13LockStateListE
  1881: 00454480     8 OBJECT  LOCAL  DEFAULT   23 _ZN8Presonus4XMenL12LinkModeListE
  1882: 00454488     8 OBJECT  LOCAL  DEFAULT   23 _ZN8Presonus4XMenL11PanModeListE
  1883: 00454490     4 OBJECT  LOCAL  DEFAULT   23 _ZN8Presonus4XMenL14EmptyParamListE
  1884: 00454494    12 OBJECT  LOCAL  DEFAULT   23 _ZN8Presonus4XMenL13SoloLatchListE
  1885: 004544a0    12 OBJECT  LOCAL  DEFAULT   23 _ZN8Presonus4XMenL23NetworkIPAssignModeListE
  1886: 004544ac    16 OBJECT  LOCAL  DEFAULT   23 _ZN8Presonus4XMenL11AvbRoleListE
  1887: 004544bc    16 OBJECT  LOCAL  DEFAULT   23 _ZN8Presonus4XMenL12AvbStateListE
  1888: 004544cc    16 OBJECT  LOCAL  DEFAULT   23 _ZN8Presonus4XMenL23AvbCs18StreamSourceListE
  1889: 004544dc     8 OBJECT  LOCAL  DEFAULT   23 _ZN8Presonus4XMenL19AvbCs18TBSourceListE
  1890: 004544e4    36 OBJECT  LOCAL  DEFAULT   23 _ZN8Presonus4XMenL14ReverbTypeListE
  1891: 00454508    68 OBJECT  LOCAL  DEFAULT   23 _ZN8Presonus4XMenL11FxParamListE
  1892: 0045454c    16 OBJECT  LOCAL  DEFAULT   23 _ZN8Presonus4XMenL13DelayTypeListE
  1893: 0045455c     8 OBJECT  LOCAL  DEFAULT   23 _ZN8Presonus4XMenL15AvbFwOptionListE
  1894: 00454564   132 OBJECT  LOCAL  DEFAULT   23 _ZN8Presonus4XMenL13SideChainListE
  1895: 004545e8     8 OBJECT  LOCAL  DEFAULT   23 _ZN8Presonus4XMenL14PreampModeListE
  1896: 004545f0    16 OBJECT  LOCAL  DEFAULT   23 _ZN8Presonus4XMenL10EQTypeListE
  1897: 00454600    12 OBJECT  LOCAL  DEFAULT   23 _ZN8Presonus4XMenL11AuxModeListE
  1898: 0045460c     8 OBJECT  LOCAL  DEFAULT   23 _ZN8Presonus4XMenL11BusModeListE
  ```